; Function Attrs: mustprogress nofree norecurse nosync nounwind willreturn memory(read, inaccessiblemem: none) uwtable
define noundef i32 @_ZNK2cv8Subdiv2D7getEdgeEii(ptr noundef nonnull readonly align 8 captures(none) dereferenceable(80) %0, i32 noundef %1, i32 noundef %2) local_unnamed_addr #0 align 2 {
  %4 = getelementptr inbounds nuw i8, ptr %0, i64 24
  %5 = ashr i32 %1, 2
  %6 = sext i32 %5 to i64
  %7 = load ptr, ptr %4, align 8, !tbaa !3
  %8 = getelementptr inbounds nuw %"struct.cv::Subdiv2D::QuadEdge", ptr %7, i64 %6
  %9 = add nsw i32 %2, %1
  %10 = and i32 %9, 3
  %11 = zext nneg i32 %10 to i64
  %12 = getelementptr inbounds nuw [4 x i32], ptr %8, i64 0, i64 %11
  %13 = load i32, ptr %12, align 4, !tbaa !9
  %14 = and i32 %13, -4
  %15 = lshr i32 %2, 4
  %16 = add i32 %13, %15
  %17 = and i32 %16, 3
  %18 = or disjoint i32 %17, %14
  ret i32 %18
}